target datalayout = "e-m:e-p270:32:32-p271:32:32-p272:64:64-i64:64-i128:128-f80:128-n8:16:32:64-S128"
target triple = "x86_64-pc-linux-gnu"

; Function Attrs: nounwind uwtable
define dso_local ptr @php_canonicalize_version(ptr noundef %0) #0 {
  %2 = alloca ptr, align 8
  %3 = alloca ptr, align 8
  %4 = alloca i64, align 8
  %5 = alloca ptr, align 8
  %6 = alloca ptr, align 8
  %7 = alloca i8, align 1
  %8 = alloca i8, align 1
  %9 = alloca ptr, align 8
  %10 = alloca i32, align 4
  store ptr %0, ptr %3, align 8, !tbaa !4
  call void @llvm.lifetime.start.p0(i64 8, ptr %4) #10
  %11 = load ptr, ptr %3, align 8, !tbaa !4
  %12 = call i64 @strlen(ptr noundef %11) #11
  store i64 %12, ptr %4, align 8, !tbaa !9
  call void @llvm.lifetime.start.p0(i64 8, ptr %5) #10
  %13 = load i64, ptr %4, align 8, !tbaa !9
  %14 = call noalias ptr @_safe_emalloc(i64 noundef %13, i64 noundef 2, i64 noundef 1)
  store ptr %14, ptr %5, align 8, !tbaa !4
  call void @llvm.lifetime.start.p0(i64 8, ptr %6) #10
  call void @llvm.lifetime.start.p0(i64 1, ptr %7) #10
  call void @llvm.lifetime.start.p0(i64 1, ptr %8) #10
  call void @llvm.lifetime.start.p0(i64 8, ptr %9) #10
  %15 = load i64, ptr %4, align 8, !tbaa !9
  %16 = icmp eq i64 %15, 0
  br i1 %16, label %17, label %20

17:                                               ; preds = %1
  %18 = load ptr, ptr %5, align 8, !tbaa !4
  store i8 0, ptr %18, align 1, !tbaa !11
  %19 = load ptr, ptr %5, align 8, !tbaa !4
  store ptr %19, ptr %2, align 8
  store i32 1, ptr %10, align 4
  br label %169

20:                                               ; preds = %1
  %21 = load ptr, ptr %3, align 8, !tbaa !4
  store ptr %21, ptr %9, align 8, !tbaa !4
  %22 = load ptr, ptr %5, align 8, !tbaa !4
  store ptr %22, ptr %6, align 8, !tbaa !4
  %23 = load ptr, ptr %9, align 8, !tbaa !4
  %24 = getelementptr inbounds nuw i8, ptr %23, i32 1
  store ptr %24, ptr %9, align 8, !tbaa !4
  %25 = load i8, ptr %23, align 1, !tbaa !11
  store i8 %25, ptr %7, align 1, !tbaa !11
  %26 = load ptr, ptr %6, align 8, !tbaa !4
  %27 = getelementptr inbounds nuw i8, ptr %26, i32 1
  store ptr %27, ptr %6, align 8, !tbaa !4
  store i8 %25, ptr %26, align 1, !tbaa !11
  br label %28

28:                                               ; preds = %161, %20
  %29 = load ptr, ptr %9, align 8, !tbaa !4
  %30 = load i8, ptr %29, align 1, !tbaa !11
  %31 = icmp ne i8 %30, 0
  br i1 %31, label %32, label %165

32:                                               ; preds = %28
  %33 = load ptr, ptr %6, align 8, !tbaa !4
  %34 = getelementptr inbounds i8, ptr %33, i64 -1
  %35 = load i8, ptr %34, align 1, !tbaa !11
  store i8 %35, ptr %8, align 1, !tbaa !11
  %36 = load ptr, ptr %9, align 8, !tbaa !4
  %37 = load i8, ptr %36, align 1, !tbaa !11
  %38 = sext i8 %37 to i32
  %39 = icmp eq i32 %38, 45
  br i1 %39, label %50, label %40

40:                                               ; preds = %32
  %41 = load ptr, ptr %9, align 8, !tbaa !4
  %42 = load i8, ptr %41, align 1, !tbaa !11
  %43 = sext i8 %42 to i32
  %44 = icmp eq i32 %43, 95
  br i1 %44, label %50, label %45

45:                                               ; preds = %40
  %46 = load ptr, ptr %9, align 8, !tbaa !4
  %47 = load i8, ptr %46, align 1, !tbaa !11
  %48 = sext i8 %47 to i32
  %49 = icmp eq i32 %48, 43
  br i1 %49, label %50, label %58

50:                                               ; preds = %45, %40, %32
  %51 = load i8, ptr %8, align 1, !tbaa !11
  %52 = sext i8 %51 to i32
  %53 = icmp ne i32 %52, 46
  br i1 %53, label %54, label %57

54:                                               ; preds = %50
  %55 = load ptr, ptr %6, align 8, !tbaa !4
  %56 = getelementptr inbounds nuw i8, ptr %55, i32 1
  store ptr %56, ptr %6, align 8, !tbaa !4
  store i8 46, ptr %55, align 1, !tbaa !11
  br label %57

57:                                               ; preds = %54, %50
  br label %161

58:                                               ; preds = %45
  %59 = call ptr @__ctype_b_loc() #12
  %60 = load ptr, ptr %59, align 8, !tbaa !12
  %61 = load i8, ptr %7, align 1, !tbaa !11
  %62 = sext i8 %61 to i32
  %63 = sext i32 %62 to i64
  %64 = getelementptr inbounds i16, ptr %60, i64 %63
  %65 = load i16, ptr %64, align 2, !tbaa !14
  %66 = zext i16 %65 to i32
  %67 = and i32 %66, 2048
  %68 = icmp ne i32 %67, 0
  br i1 %68, label %90, label %69

69:                                               ; preds = %58
  %70 = load i8, ptr %7, align 1, !tbaa !11
  %71 = sext i8 %70 to i32
  %72 = icmp ne i32 %71, 46
  br i1 %72, label %73, label %90

73:                                               ; preds = %69
  %74 = call ptr @__ctype_b_loc() #12
  %75 = load ptr, ptr %74, align 8, !tbaa !12
  %76 = load ptr, ptr %9, align 8, !tbaa !4
  %77 = load i8, ptr %76, align 1, !tbaa !11
  %78 = sext i8 %77 to i32
  %79 = sext i32 %78 to i64
  %80 = getelementptr inbounds i16, ptr %75, i64 %79
  %81 = load i16, ptr %80, align 2, !tbaa !14
  %82 = zext i16 %81 to i32
  %83 = and i32 %82, 2048
  %84 = icmp ne i32 %83, 0
  br i1 %84, label %85, label %90

85:                                               ; preds = %73
  %86 = load ptr, ptr %9, align 8, !tbaa !4
  %87 = load i8, ptr %86, align 1, !tbaa !11
  %88 = sext i8 %87 to i32
  %89 = icmp ne i32 %88, 46
  br i1 %89, label %122, label %90

90:                                               ; preds = %85, %73, %69, %58
  %91 = call ptr @__ctype_b_loc() #12
  %92 = load ptr, ptr %91, align 8, !tbaa !12
  %93 = load i8, ptr %7, align 1, !tbaa !11
  %94 = sext i8 %93 to i32
  %95 = sext i32 %94 to i64
  %96 = getelementptr inbounds i16, ptr %92, i64 %95
  %97 = load i16, ptr %96, align 2, !tbaa !14
  %98 = zext i16 %97 to i32
  %99 = and i32 %98, 2048
  %100 = icmp ne i32 %99, 0
  br i1 %100, label %101, label %134

101:                                              ; preds = %90
  %102 = load i8, ptr %7, align 1, !tbaa !11
  %103 = sext i8 %102 to i32
  %104 = icmp ne i32 %103, 46
  br i1 %104, label %105, label %134

105:                                              ; preds = %101
  %106 = call ptr @__ctype_b_loc() #12
  %107 = load ptr, ptr %106, align 8, !tbaa !12
  %108 = load ptr, ptr %9, align 8, !tbaa !4
  %109 = load i8, ptr %108, align 1, !tbaa !11
  %110 = sext i8 %109 to i32
  %111 = sext i32 %110 to i64
  %112 = getelementptr inbounds i16, ptr %107, i64 %111
  %113 = load i16, ptr %112, align 2, !tbaa !14
  %114 = zext i16 %113 to i32
  %115 = and i32 %114, 2048
  %116 = icmp ne i32 %115, 0
  br i1 %116, label %134, label %117

117:                                              ; preds = %105
  %118 = load ptr, ptr %9, align 8, !tbaa !4
  %119 = load i8, ptr %118, align 1, !tbaa !11
  %120 = sext i8 %119 to i32
  %121 = icmp ne i32 %120, 46
  br i1 %121, label %122, label %134

122:                                              ; preds = %117, %85
  %123 = load i8, ptr %8, align 1, !tbaa !11
  %124 = sext i8 %123 to i32
  %125 = icmp ne i32 %124, 46
  br i1 %125, label %126, label %129

126:                                              ; preds = %122
  %127 = load ptr, ptr %6, align 8, !tbaa !4
  %128 = getelementptr inbounds nuw i8, ptr %127, i32 1
  store ptr %128, ptr %6, align 8, !tbaa !4
  store i8 46, ptr %127, align 1, !tbaa !11
  br label %129

129:                                              ; preds = %126, %122
  %130 = load ptr, ptr %9, align 8, !tbaa !4
  %131 = load i8, ptr %130, align 1, !tbaa !11
  %132 = load ptr, ptr %6, align 8, !tbaa !4
  %133 = getelementptr inbounds nuw i8, ptr %132, i32 1
  store ptr %133, ptr %6, align 8, !tbaa !4
  store i8 %131, ptr %132, align 1, !tbaa !11
  br label %160

134:                                              ; preds = %117, %105, %101, %90
  %135 = call ptr @__ctype_b_loc() #12
  %136 = load ptr, ptr %135, align 8, !tbaa !12
  %137 = load ptr, ptr %9, align 8, !tbaa !4
  %138 = load i8, ptr %137, align 1, !tbaa !11
  %139 = sext i8 %138 to i32
  %140 = sext i32 %139 to i64
  %141 = getelementptr inbounds i16, ptr %136, i64 %140
  %142 = load i16, ptr %141, align 2, !tbaa !14
  %143 = zext i16 %142 to i32
  %144 = and i32 %143, 8
  %145 = icmp ne i32 %144, 0
  br i1 %145, label %154, label %146

146:                                              ; preds = %134
  %147 = load i8, ptr %8, align 1, !tbaa !11
  %148 = sext i8 %147 to i32
  %149 = icmp ne i32 %148, 46
  br i1 %149, label %150, label %153

150:                                              ; preds = %146
  %151 = load ptr, ptr %6, align 8, !tbaa !4
  %152 = getelementptr inbounds nuw i8, ptr %151, i32 1
  store ptr %152, ptr %6, align 8, !tbaa !4
  store i8 46, ptr %151, align 1, !tbaa !11
  br label %153

153:                                              ; preds = %150, %146
  br label %159

154:                                              ; preds = %134
  %155 = load ptr, ptr %9, align 8, !tbaa !4
  %156 = load i8, ptr %155, align 1, !tbaa !11
  %157 = load ptr, ptr %6, align 8, !tbaa !4
  %158 = getelementptr inbounds nuw i8, ptr %157, i32 1
  store ptr %158, ptr %6, align 8, !tbaa !4
  store i8 %156, ptr %157, align 1, !tbaa !11
  br label %159

159:                                              ; preds = %154, %153
  br label %160

160:                                              ; preds = %159, %129
  br label %161

161:                                              ; preds = %160, %57
  %162 = load ptr, ptr %9, align 8, !tbaa !4
  %163 = getelementptr inbounds nuw i8, ptr %162, i32 1
  store ptr %163, ptr %9, align 8, !tbaa !4
  %164 = load i8, ptr %162, align 1, !tbaa !11
  store i8 %164, ptr %7, align 1, !tbaa !11
  br label %28

165:                                              ; preds = %28
  %166 = load ptr, ptr %6, align 8, !tbaa !4
  %167 = getelementptr inbounds nuw i8, ptr %166, i32 1
  store ptr %167, ptr %6, align 8, !tbaa !4
  store i8 0, ptr %166, align 1, !tbaa !11
  %168 = load ptr, ptr %5, align 8, !tbaa !4
  store ptr %168, ptr %2, align 8
  store i32 1, ptr %10, align 4
  br label %169

169:                                              ; preds = %165, %17
  call void @llvm.lifetime.end.p0(i64 8, ptr %9) #10
  call void @llvm.lifetime.end.p0(i64 1, ptr %8) #10
  call void @llvm.lifetime.end.p0(i64 1, ptr %7) #10
  call void @llvm.lifetime.end.p0(i64 8, ptr %6) #10
  call void @llvm.lifetime.end.p0(i64 8, ptr %5) #10
  call void @llvm.lifetime.end.p0(i64 8, ptr %4) #10
  %170 = load ptr, ptr %2, align 8
  ret ptr %170
}