; Function Attrs: nounwind uwtable
define dso_local noalias ptr @php_canonicalize_version(ptr noundef readonly captures(none) %0) local_unnamed_addr #0 {
  %2 = tail call i64 @strlen(ptr noundef nonnull dereferenceable(1) %0) #8
  %3 = tail call noalias ptr @_safe_emalloc(i64 noundef %2, i64 noundef 2, i64 noundef 1) #9
  %4 = icmp eq i64 %2, 0
  br i1 %4, label %._crit_edge, label %5

5:                                                ; preds = %1
  %6 = load i8, ptr %0, align 1, !tbaa !4
  %7 = getelementptr inbounds nuw i8, ptr %3, i64 1
  store i8 %6, ptr %3, align 1, !tbaa !4
  %.057 = getelementptr inbounds nuw i8, ptr %0, i64 1
  %8 = load i8, ptr %.057, align 1, !tbaa !4
  %.not58 = icmp eq i8 %8, 0
  br i1 %.not58, label %._crit_edge, label %.lr.ph

.lr.ph:                                           ; preds = %5, %49
  %9 = phi i8 [ %51, %49 ], [ %8, %5 ]
  %.061 = phi ptr [ %.0, %49 ], [ %.057, %5 ]
  %.04260 = phi i8 [ %50, %49 ], [ %6, %5 ]
  %.04359 = phi ptr [ %.1, %49 ], [ %7, %5 ]
  %10 = getelementptr inbounds i8, ptr %.04359, i64 -1
  %11 = load i8, ptr %10, align 1, !tbaa !4
  switch i8 %9, label %15 [
    i8 45, label %12
    i8 95, label %12
    i8 43, label %12
  ]

12:                                               ; preds = %.lr.ph, %.lr.ph, %.lr.ph
  %.not53 = icmp eq i8 %11, 46
  br i1 %.not53, label %49, label %13

13:                                               ; preds = %12
  %14 = getelementptr inbounds nuw i8, ptr %.04359, i64 1
  store i8 46, ptr %.04359, align 1, !tbaa !4
  br label %49

15:                                               ; preds = %.lr.ph
  %16 = tail call ptr @__ctype_b_loc() #10
  %17 = load ptr, ptr %16, align 8, !tbaa !7
  %18 = sext i8 %.04260 to i64
  %19 = getelementptr inbounds i16, ptr %17, i64 %18
  %20 = load i16, ptr %19, align 2, !tbaa !10
  %21 = and i16 %20, 2048
  %22 = icmp eq i16 %21, 0
  %23 = icmp ne i8 %.04260, 46
  %or.cond = select i1 %22, i1 %23, i1 false
  br i1 %or.cond, label %24, label %29

24:                                               ; preds = %15
  %25 = sext i8 %9 to i64
  %26 = getelementptr inbounds i16, ptr %17, i64 %25
  %27 = load i16, ptr %26, align 2, !tbaa !10
  %28 = and i16 %27, 2048
  %.not46 = icmp eq i16 %28, 0
  %.not47 = icmp eq i8 %9, 46
  %or.cond54 = or i1 %.not47, %.not46
  br i1 %or.cond54, label %.thread, label %36

29:                                               ; preds = %15
  %30 = icmp ne i16 %21, 0
  %or.cond5 = select i1 %30, i1 %23, i1 false
  %31 = sext i8 %9 to i64
  %32 = getelementptr inbounds i16, ptr %17, i64 %31
  %33 = load i16, ptr %32, align 2, !tbaa !10
  br i1 %or.cond5, label %34, label %.thread

34:                                               ; preds = %29
  %35 = and i16 %33, 2048
  %.not48 = icmp ne i16 %35, 0
  %.not49 = icmp eq i8 %9, 46
  %or.cond55 = or i1 %.not49, %.not48
  br i1 %or.cond55, label %.thread, label %36

36:                                               ; preds = %34, %24
  %.not52 = icmp eq i8 %11, 46
  br i1 %.not52, label %39, label %37

37:                                               ; preds = %36
  %38 = getelementptr inbounds nuw i8, ptr %.04359, i64 1
  store i8 46, ptr %.04359, align 1, !tbaa !4
  %.pre = load i8, ptr %.061, align 1, !tbaa !4
  br label %39

39:                                               ; preds = %37, %36
  %40 = phi i8 [ %.pre, %37 ], [ %9, %36 ]
  %.2 = phi ptr [ %38, %37 ], [ %.04359, %36 ]
  %41 = getelementptr inbounds nuw i8, ptr %.2, i64 1
  store i8 %40, ptr %.2, align 1, !tbaa !4
  br label %49

.thread:                                          ; preds = %29, %24, %34
  %42 = phi i16 [ %27, %24 ], [ %33, %34 ], [ %33, %29 ]
  %43 = and i16 %42, 8
  %.not50 = icmp eq i16 %43, 0
  br i1 %.not50, label %44, label %47

44:                                               ; preds = %.thread
  %.not51 = icmp eq i8 %11, 46
  br i1 %.not51, label %49, label %45

45:                                               ; preds = %44
  %46 = getelementptr inbounds nuw i8, ptr %.04359, i64 1
  store i8 46, ptr %.04359, align 1, !tbaa !4
  br label %49

47:                                               ; preds = %.thread
  %48 = getelementptr inbounds nuw i8, ptr %.04359, i64 1
  store i8 %9, ptr %.04359, align 1, !tbaa !4
  br label %49

49:                                               ; preds = %39, %44, %45, %47, %12, %13
  %.1 = phi ptr [ %14, %13 ], [ %.04359, %12 ], [ %41, %39 ], [ %48, %47 ], [ %46, %45 ], [ %.04359, %44 ]
  %50 = load i8, ptr %.061, align 1, !tbaa !4
  %.0 = getelementptr inbounds nuw i8, ptr %.061, i64 1
  %51 = load i8, ptr %.0, align 1, !tbaa !4
  %.not = icmp eq i8 %51, 0
  br i1 %.not, label %._crit_edge, label %.lr.ph

._crit_edge:                                      ; preds = %49, %5, %1
  %.043.lcssa.sink = phi ptr [ %3, %1 ], [ %7, %5 ], [ %.1, %49 ]
  store i8 0, ptr %.043.lcssa.sink, align 1, !tbaa !4
  ret ptr %3
}